target datalayout = "e-m:e-p270:32:32-p271:32:32-p272:64:64-i64:64-i128:128-f80:128-n8:16:32:64-S128"
target triple = "x86_64-pc-linux-gnu"

%struct.DTableDesc = type { i8, i8, i8, i8 }

; Function Attrs: nounwind uwtable
define internal i32 @HUF_getDTableDesc(ptr noundef %0) #0 {
  %2 = alloca %struct.DTableDesc, align 1
  %3 = alloca ptr, align 8
  store ptr %0, ptr %3, align 8, !tbaa !3
  %4 = load ptr, ptr %3, align 8, !tbaa !3
  call void @llvm.memcpy.p0.p0.i64(ptr align 1 %2, ptr align 4 %4, i64 4, i1 false)
  %5 = load i32, ptr %2, align 1
  ret i32 %5
}

; Function Attrs: nounwind uwtable
define i64 @HUF_decompress4X_usingDTable(ptr noundef %0, i64 noundef %1, ptr noundef %2, i64 noundef %3, ptr noundef %4, i32 noundef %5) #0 {
  %7 = alloca ptr, align 8
  %8 = alloca i64, align 8
  %9 = alloca ptr, align 8
  %10 = alloca i64, align 8
  %11 = alloca ptr, align 8
  %12 = alloca i32, align 4
  %13 = alloca %struct.DTableDesc, align 1
  store ptr %0, ptr %7, align 8, !tbaa !8
  store i64 %1, ptr %8, align 8, !tbaa !9
  store ptr %2, ptr %9, align 8, !tbaa !8
  store i64 %3, ptr %10, align 8, !tbaa !9
  store ptr %4, ptr %11, align 8, !tbaa !3
  store i32 %5, ptr %12, align 4, !tbaa !11
  call void @llvm.lifetime.start.p0(i64 4, ptr %13) #10
  %14 = load ptr, ptr %11, align 8, !tbaa !3
  %15 = call i32 @HUF_getDTableDesc(ptr noundef %14)
  store i32 %15, ptr %13, align 1
  %16 = getelementptr inbounds nuw %struct.DTableDesc, ptr %13, i32 0, i32 1
  %17 = load i8, ptr %16, align 1, !tbaa !15
  %18 = zext i8 %17 to i32
  %19 = icmp ne i32 %18, 0
  br i1 %19, label %20, label %28

20:                                               ; preds = %6
  %21 = load ptr, ptr %7, align 8, !tbaa !8
  %22 = load i64, ptr %8, align 8, !tbaa !9
  %23 = load ptr, ptr %9, align 8, !tbaa !8
  %24 = load i64, ptr %10, align 8, !tbaa !9
  %25 = load ptr, ptr %11, align 8, !tbaa !3
  %26 = load i32, ptr %12, align 4, !tbaa !11
  %27 = call i64 @HUF_decompress4X2_usingDTable_internal(ptr noundef %21, i64 noundef %22, ptr noundef %23, i64 noundef %24, ptr noundef %25, i32 noundef %26)
  br label %36

28:                                               ; preds = %6
  %29 = load ptr, ptr %7, align 8, !tbaa !8
  %30 = load i64, ptr %8, align 8, !tbaa !9
  %31 = load ptr, ptr %9, align 8, !tbaa !8
  %32 = load i64, ptr %10, align 8, !tbaa !9
  %33 = load ptr, ptr %11, align 8, !tbaa !3
  %34 = load i32, ptr %12, align 4, !tbaa !11
  %35 = call i64 @HUF_decompress4X1_usingDTable_internal(ptr noundef %29, i64 noundef %30, ptr noundef %31, i64 noundef %32, ptr noundef %33, i32 noundef %34)
  br label %36

36:                                               ; preds = %28, %20
  %37 = phi i64 [ %27, %20 ], [ %35, %28 ]
  call void @llvm.lifetime.end.p0(i64 4, ptr %13) #10
  ret i64 %37
}